target datalayout = "e-m:e-p270:32:32-p271:32:32-p272:64:64-i64:64-i128:128-f80:128-n8:16:32:64-S128"
target triple = "x86_64-pc-linux-gnu"

%struct.GtkApi = type { i32, ptr, ptr, ptr, ptr, ptr, ptr, ptr, ptr, ptr, ptr, ptr, ptr, ptr, ptr, ptr, ptr, ptr, ptr, ptr, ptr, ptr, ptr, ptr, ptr, ptr, ptr, ptr, ptr, ptr, ptr, ptr, ptr, ptr, ptr, ptr, ptr, ptr, ptr, ptr, ptr, ptr, ptr, ptr, ptr, ptr, ptr, ptr, ptr, ptr, ptr, ptr, ptr, ptr, ptr, ptr, ptr, ptr, ptr, ptr, ptr, ptr, ptr, ptr, ptr, ptr, ptr, ptr, ptr, ptr, ptr, ptr, ptr, ptr, ptr, ptr, ptr, ptr, ptr, ptr, ptr, ptr, ptr, ptr, ptr, ptr, ptr, ptr, ptr, ptr, ptr, ptr, ptr, ptr, ptr, ptr, ptr, ptr, ptr, ptr, ptr, ptr, ptr, ptr, ptr }

@gtk = external global ptr, align 8
@.str.1 = private unnamed_addr constant [58 x i8] c"%s:%i !!! restore token is not a valid UUID string:\0A\22%s\22\0A\00", align 1
@__func__.validateToken = private unnamed_addr constant [14 x i8] c"validateToken\00", align 1

; Function Attrs: nounwind uwtable
define hidden i32 @validateToken(ptr noundef %0) #0 {
  %2 = alloca i32, align 4
  %3 = alloca ptr, align 8
  %4 = alloca i32, align 4
  store ptr %0, ptr %3, align 8
  %5 = load ptr, ptr %3, align 8
  %6 = icmp ne ptr %5, null
  br i1 %6, label %8, label %7

7:                                                ; preds = %1
  store i32 0, ptr %2, align 4
  br label %20

8:                                                ; preds = %1
  %9 = load ptr, ptr @gtk, align 8
  %10 = getelementptr inbounds %struct.GtkApi, ptr %9, i32 0, i32 89
  %11 = load ptr, ptr %10, align 8
  %12 = load ptr, ptr %3, align 8
  %13 = call i32 %11(ptr noundef %12)
  store i32 %13, ptr %4, align 4
  %14 = load i32, ptr %4, align 4
  %15 = icmp ne i32 %14, 0
  br i1 %15, label %18, label %16

16:                                               ; preds = %8
  %17 = load ptr, ptr %3, align 8
  call void (ptr, ...) @debug_screencast(ptr noundef @.str.1, ptr noundef @__func__.validateToken, i32 noundef 65, ptr noundef %17)
  br label %18

18:                                               ; preds = %16, %8
  %19 = load i32, ptr %4, align 4
  store i32 %19, ptr %2, align 4
  br label %20

20:                                               ; preds = %18, %7
  %21 = load i32, ptr %2, align 4
  ret i32 %21
}