; Function Attrs: nounwind uwtable
define hidden i32 @validateToken(ptr noundef %0) local_unnamed_addr #0 {
  %.not = icmp eq ptr %0, null
  br i1 %.not, label %8, label %2

2:                                                ; preds = %1
  %3 = load ptr, ptr @gtk, align 8
  %4 = getelementptr inbounds i8, ptr %3, i64 712
  %5 = load ptr, ptr %4, align 8
  %6 = tail call i32 %5(ptr noundef nonnull %0) #9
  %.not6 = icmp eq i32 %6, 0
  br i1 %.not6, label %7, label %8

7:                                                ; preds = %2
  tail call void (ptr, ...) @debug_screencast(ptr noundef nonnull @.str.1, ptr noundef nonnull @__func__.validateToken, i32 noundef 65, ptr noundef nonnull %0) #9
  br label %8

8:                                                ; preds = %2, %7, %1
  %.0 = phi i32 [ 0, %1 ], [ 0, %7 ], [ %6, %2 ]
  ret i32 %.0
}